; Function Attrs: mustprogress uwtable
define hidden void @_ZN4cvc58internal6theory5arith6linear9DioSolver27processEquationsForConflictEv(ptr dead_on_unwind noalias writable sret(%"class.cvc5::internal::NodeTemplate") align 8 %0, ptr noundef nonnull align 8 dereferenceable(1032) %1) local_unnamed_addr #3 align 2 personality ptr @__gxx_personality_v0 {
  %3 = alloca %"class.cvc5::internal::CodeTimer", align 8
  call void @llvm.lifetime.start.p0(i64 16, ptr nonnull %3) #25
  %4 = getelementptr inbounds nuw i8, ptr %1, i64 984
  %5 = getelementptr inbounds nuw i8, ptr %1, i64 1016
  call void @_ZN4cvc58internal9CodeTimerC1ERNS0_9TimerStatEb(ptr noundef nonnull align 8 dereferenceable(9) %3, ptr noundef nonnull align 8 dereferenceable(8) %5, i1 noundef zeroext false)
  %6 = invoke noundef nonnull align 8 dereferenceable(8) ptr @_ZN4cvc58internal7IntStatppEv(ptr noundef nonnull align 8 dereferenceable(8) %4)
          to label %7 unwind label %16

7:                                                ; preds = %2
  %8 = invoke noundef zeroext i1 @_ZN4cvc58internal6theory5arith6linear9DioSolver16processEquationsEb(ptr noundef nonnull align 8 dereferenceable(1032) %1, i1 noundef zeroext true)
          to label %9 unwind label %16

9:                                                ; preds = %7
  br i1 %8, label %10, label %18

10:                                               ; preds = %9
  %11 = getelementptr inbounds nuw i8, ptr %1, i64 1008
  %12 = invoke noundef nonnull align 8 dereferenceable(8) ptr @_ZN4cvc58internal7IntStatppEv(ptr noundef nonnull align 8 dereferenceable(8) %11)
          to label %13 unwind label %16

13:                                               ; preds = %10
  %14 = getelementptr inbounds nuw i8, ptr %1, i64 688
  %15 = load i64, ptr %14, align 8, !tbaa !122
  invoke void @_ZN4cvc58internal6theory5arith6linear9DioSolver10proveIndexEm(ptr dead_on_unwind writable sret(%"class.cvc5::internal::NodeTemplate") align 8 %0, ptr noundef nonnull align 8 dereferenceable(1032) %1, i64 noundef %15)
          to label %_ZN4cvc58internal12NodeTemplateILb1EE4nullEv.exit unwind label %16

16:                                               ; preds = %32, %13, %10, %7, %2
  %17 = landingpad { ptr, i32 }
          cleanup
  call void @_ZN4cvc58internal9CodeTimerD1Ev(ptr noundef nonnull align 8 dereferenceable(9) %3) #25
  call void @llvm.lifetime.end.p0(i64 16, ptr nonnull %3) #25
  resume { ptr, i32 } %17

18:                                               ; preds = %9
  call void @llvm.experimental.noalias.scope.decl(metadata !509)
  %19 = load ptr, ptr @_ZN4cvc58internal12NodeTemplateILb1EE6s_nullE, align 8, !tbaa !107, !noalias !509
  store ptr %19, ptr %0, align 8, !tbaa !107, !alias.scope !509
  %20 = load i64, ptr %19, align 8, !noalias !509
  %21 = lshr i64 %20, 40
  %22 = trunc nuw nsw i64 %21 to i32
  %23 = and i32 %22, 1048575
  %24 = icmp samesign ult i32 %23, 1048574
  br i1 %24, label %25, label %30, !prof !131

25:                                               ; preds = %18
  %26 = add i64 %20, 1099511627776
  %27 = and i64 %26, 1152920405095219200
  %28 = and i64 %20, -1152920405095219201
  %29 = or disjoint i64 %27, %28
  store i64 %29, ptr %19, align 8, !noalias !509
  br label %_ZN4cvc58internal12NodeTemplateILb1EE4nullEv.exit

30:                                               ; preds = %18
  %31 = icmp eq i32 %23, 1048574
  br i1 %31, label %32, label %_ZN4cvc58internal12NodeTemplateILb1EE4nullEv.exit, !prof !110

32:                                               ; preds = %30
  %33 = or i64 %20, 1152920405095219200
  store i64 %33, ptr %19, align 8, !noalias !509
  invoke void @_ZN4cvc58internal4expr9NodeValue20markRefCountMaxedOutEv(ptr noundef nonnull align 8 dereferenceable(24) %19)
          to label %_ZN4cvc58internal12NodeTemplateILb1EE4nullEv.exit unwind label %16

_ZN4cvc58internal12NodeTemplateILb1EE4nullEv.exit: ; preds = %30, %25, %32, %13
  call void @_ZN4cvc58internal9CodeTimerD1Ev(ptr noundef nonnull align 8 dereferenceable(9) %3) #25
  call void @llvm.lifetime.end.p0(i64 16, ptr nonnull %3) #25
  ret void
}